target datalayout = "e-m:e-p270:32:32-p271:32:32-p272:64:64-i64:64-i128:128-f80:128-n8:16:32:64-S128"
target triple = "x86_64-pc-linux-gnu"

%"class.Eigen::Matrix" = type { %"class.Eigen::PlainObjectBase" }
%"class.Eigen::PlainObjectBase" = type { %"class.Eigen::DenseStorage" }
%"class.Eigen::DenseStorage" = type { %"struct.Eigen::internal::plain_array" }
%"struct.Eigen::internal::plain_array" = type { [3 x i32] }
%"class.open3d::pipelines::integration::UniformTSDFVolume" = type { %"class.open3d::pipelines::integration::TSDFVolume.base", %"class.std::vector", %"class.Eigen::Matrix.16", double, i32, i32 }
%"class.open3d::pipelines::integration::TSDFVolume.base" = type <{ ptr, double, double, i32 }>
%"class.std::vector" = type { %"struct.std::_Vector_base" }
%"struct.std::_Vector_base" = type { %"struct.std::_Vector_base<open3d::geometry::TSDFVoxel, std::allocator<open3d::geometry::TSDFVoxel>>::_Vector_impl" }
%"struct.std::_Vector_base<open3d::geometry::TSDFVoxel, std::allocator<open3d::geometry::TSDFVoxel>>::_Vector_impl" = type { %"struct.std::_Vector_base<open3d::geometry::TSDFVoxel, std::allocator<open3d::geometry::TSDFVoxel>>::_Vector_impl_data" }
%"struct.std::_Vector_base<open3d::geometry::TSDFVoxel, std::allocator<open3d::geometry::TSDFVoxel>>::_Vector_impl_data" = type { ptr, ptr, ptr }
%"class.Eigen::Matrix.16" = type { %"class.Eigen::PlainObjectBase.17" }
%"class.Eigen::PlainObjectBase.17" = type { %"class.Eigen::DenseStorage.24" }
%"class.Eigen::DenseStorage.24" = type { %"struct.Eigen::internal::plain_array.25" }
%"struct.Eigen::internal::plain_array.25" = type { [3 x double] }
%"class.open3d::geometry::TSDFVoxel" = type { %"class.open3d::geometry::Voxel", float, float }
%"class.open3d::geometry::Voxel" = type { %"class.Eigen::Matrix", %"class.Eigen::Matrix.16" }

; Function Attrs: mustprogress nounwind ssp uwtable
define linkonce_odr void @_ZN6open3d8geometry5VoxelD2Ev(ptr noundef nonnull align 8 dereferenceable(40) %0) unnamed_addr #0 comdat align 2 {
  %2 = alloca ptr, align 8
  store ptr %0, ptr %2, align 8, !tbaa !178
  ret void
}

; Function Attrs: inlinehint mustprogress nounwind ssp uwtable
define linkonce_odr void @_ZSt8_DestroyIN6open3d8geometry9TSDFVoxelEEvPT_(ptr noundef %0) #10 comdat {
  %2 = alloca ptr, align 8
  store ptr %0, ptr %2, align 8, !tbaa !162
  %3 = load ptr, ptr %2, align 8, !tbaa !162
  call void @_ZN6open3d8geometry5VoxelD2Ev(ptr noundef nonnull align 8 dereferenceable(48) %3) #32
  ret void
}

; Function Attrs: mustprogress ssp uwtable
define linkonce_odr void @_ZNSt12_Destroy_auxILb0EE9__destroyIPN6open3d8geometry9TSDFVoxelEEEvT_S6_(ptr noundef %0, ptr noundef %1) #1 comdat align 2 {
  %3 = alloca ptr, align 8
  %4 = alloca ptr, align 8
  store ptr %0, ptr %3, align 8, !tbaa !162
  store ptr %1, ptr %4, align 8, !tbaa !162
  br label %5

5:                                                ; preds = %11, %2
  %6 = load ptr, ptr %3, align 8, !tbaa !162
  %7 = load ptr, ptr %4, align 8, !tbaa !162
  %8 = icmp ne ptr %6, %7
  br i1 %8, label %9, label %14

9:                                                ; preds = %5
  %10 = load ptr, ptr %3, align 8, !tbaa !162
  call void @_ZSt8_DestroyIN6open3d8geometry9TSDFVoxelEEvPT_(ptr noundef %10)
  br label %11

11:                                               ; preds = %9
  %12 = load ptr, ptr %3, align 8, !tbaa !162
  %13 = getelementptr inbounds nuw %"class.open3d::geometry::TSDFVoxel", ptr %12, i32 1
  store ptr %13, ptr %3, align 8, !tbaa !162
  br label %5, !llvm.loop !175

14:                                               ; preds = %5
  ret void
}

; Function Attrs: inlinehint mustprogress ssp uwtable
define linkonce_odr void @_ZSt8_DestroyIPN6open3d8geometry9TSDFVoxelEEvT_S4_(ptr noundef %0, ptr noundef %1) #4 comdat {
  %3 = alloca ptr, align 8
  %4 = alloca ptr, align 8
  store ptr %0, ptr %3, align 8, !tbaa !162
  store ptr %1, ptr %4, align 8, !tbaa !162
  %5 = load ptr, ptr %3, align 8, !tbaa !162
  %6 = load ptr, ptr %4, align 8, !tbaa !162
  call void @_ZNSt12_Destroy_auxILb0EE9__destroyIPN6open3d8geometry9TSDFVoxelEEEvT_S6_(ptr noundef %5, ptr noundef %6)
  ret void
}

; Function Attrs: noinline noreturn nounwind ssp uwtable
define linkonce_odr hidden void @__clang_call_terminate(ptr noundef %0) #9 comdat {
  %2 = call ptr @__cxa_begin_catch(ptr %0) #32
  call void @_ZSt9terminatev() #35
  unreachable
}

; Function Attrs: alwaysinline mustprogress ssp uwtable
define linkonce_odr void @_ZSt8_DestroyIPN6open3d8geometry9TSDFVoxelES2_EvT_S4_RSaIT0_E(ptr noundef %0, ptr noundef %1, ptr noundef nonnull align 1 dereferenceable(1) %2) #8 comdat {
  %4 = alloca ptr, align 8
  %5 = alloca ptr, align 8
  %6 = alloca ptr, align 8
  store ptr %0, ptr %4, align 8, !tbaa !162
  store ptr %1, ptr %5, align 8, !tbaa !162
  store ptr %2, ptr %6, align 8, !tbaa !147
  %7 = load ptr, ptr %4, align 8, !tbaa !162
  %8 = load ptr, ptr %5, align 8, !tbaa !162
  call void @_ZSt8_DestroyIPN6open3d8geometry9TSDFVoxelEEvT_S4_(ptr noundef %7, ptr noundef %8)
  ret void
}

; Function Attrs: mustprogress nounwind ssp uwtable
define linkonce_odr noundef nonnull align 1 dereferenceable(1) ptr @_ZNSt12_Vector_baseIN6open3d8geometry9TSDFVoxelESaIS2_EE19_M_get_Tp_allocatorEv(ptr noundef nonnull align 8 dereferenceable(24) %0) #0 comdat align 2 {
  %2 = alloca ptr, align 8
  store ptr %0, ptr %2, align 8, !tbaa !143
  %3 = load ptr, ptr %2, align 8
  %4 = getelementptr inbounds nuw %"struct.std::_Vector_base", ptr %3, i32 0, i32 0
  ret ptr %4
}

; Function Attrs: mustprogress nounwind ssp uwtable
define linkonce_odr void @_ZNSt6vectorIN6open3d8geometry9TSDFVoxelESaIS2_EE15_M_erase_at_endEPS2_(ptr noundef nonnull align 8 dereferenceable(24) %0, ptr noundef %1) #0 comdat align 2 personality ptr @__gxx_personality_v0 {
  %3 = alloca ptr, align 8
  %4 = alloca ptr, align 8
  %5 = alloca i64, align 8
  store ptr %0, ptr %3, align 8, !tbaa !138
  store ptr %1, ptr %4, align 8, !tbaa !162
  %6 = load ptr, ptr %3, align 8
  call void @llvm.lifetime.start.p0(i64 8, ptr %5) #32
  %7 = getelementptr inbounds nuw %"struct.std::_Vector_base", ptr %6, i32 0, i32 0
  %8 = getelementptr inbounds nuw %"struct.std::_Vector_base<open3d::geometry::TSDFVoxel, std::allocator<open3d::geometry::TSDFVoxel>>::_Vector_impl_data", ptr %7, i32 0, i32 1
  %9 = load ptr, ptr %8, align 8, !tbaa !142
  %10 = load ptr, ptr %4, align 8, !tbaa !162
  %11 = ptrtoint ptr %9 to i64
  %12 = ptrtoint ptr %10 to i64
  %13 = sub i64 %11, %12
  %14 = sdiv exact i64 %13, 48
  store i64 %14, ptr %5, align 8, !tbaa !140
  %15 = load i64, ptr %5, align 8, !tbaa !140
  %16 = icmp ne i64 %15, 0
  br i1 %16, label %17, label %27

17:                                               ; preds = %2
  %18 = load ptr, ptr %4, align 8, !tbaa !162
  %19 = getelementptr inbounds nuw %"struct.std::_Vector_base", ptr %6, i32 0, i32 0
  %20 = getelementptr inbounds nuw %"struct.std::_Vector_base<open3d::geometry::TSDFVoxel, std::allocator<open3d::geometry::TSDFVoxel>>::_Vector_impl_data", ptr %19, i32 0, i32 1
  %21 = load ptr, ptr %20, align 8, !tbaa !142
  %22 = call noundef nonnull align 1 dereferenceable(1) ptr @_ZNSt12_Vector_baseIN6open3d8geometry9TSDFVoxelESaIS2_EE19_M_get_Tp_allocatorEv(ptr noundef nonnull align 8 dereferenceable(24) %6) #32
  invoke void @_ZSt8_DestroyIPN6open3d8geometry9TSDFVoxelES2_EvT_S4_RSaIT0_E(ptr noundef %18, ptr noundef %21, ptr noundef nonnull align 1 dereferenceable(1) %22)
          to label %23 unwind label %28

23:                                               ; preds = %17
  %24 = load ptr, ptr %4, align 8, !tbaa !162
  %25 = getelementptr inbounds nuw %"struct.std::_Vector_base", ptr %6, i32 0, i32 0
  %26 = getelementptr inbounds nuw %"struct.std::_Vector_base<open3d::geometry::TSDFVoxel, std::allocator<open3d::geometry::TSDFVoxel>>::_Vector_impl_data", ptr %25, i32 0, i32 1
  store ptr %24, ptr %26, align 8, !tbaa !142
  br label %27

27:                                               ; preds = %23, %2
  call void @llvm.lifetime.end.p0(i64 8, ptr %5) #32
  ret void

28:                                               ; preds = %17
  %29 = landingpad { ptr, i32 }
          catch ptr null
  %30 = extractvalue { ptr, i32 } %29, 0
  call void @__clang_call_terminate(ptr %30) #35
  unreachable
}

; Function Attrs: mustprogress nounwind ssp uwtable
define linkonce_odr void @_ZNSt6vectorIN6open3d8geometry9TSDFVoxelESaIS2_EE5clearEv(ptr noundef nonnull align 8 dereferenceable(24) %0) #0 comdat align 2 {
  %2 = alloca ptr, align 8
  store ptr %0, ptr %2, align 8, !tbaa !138
  %3 = load ptr, ptr %2, align 8
  %4 = getelementptr inbounds nuw %"struct.std::_Vector_base", ptr %3, i32 0, i32 0
  %5 = getelementptr inbounds nuw %"struct.std::_Vector_base<open3d::geometry::TSDFVoxel, std::allocator<open3d::geometry::TSDFVoxel>>::_Vector_impl_data", ptr %4, i32 0, i32 0
  %6 = load ptr, ptr %5, align 8, !tbaa !141
  call void @_ZNSt6vectorIN6open3d8geometry9TSDFVoxelESaIS2_EE15_M_erase_at_endEPS2_(ptr noundef nonnull align 8 dereferenceable(24) %3, ptr noundef %6) #32
  ret void
}

; Function Attrs: mustprogress nounwind ssp uwtable
define void @_ZN6open3d9pipelines11integration17UniformTSDFVolume5ResetEv(ptr noundef nonnull align 8 dereferenceable(96) %0) unnamed_addr #0 align 2 {
  %2 = alloca ptr, align 8
  store ptr %0, ptr %2, align 8, !tbaa !4
  %3 = load ptr, ptr %2, align 8
  %4 = getelementptr inbounds nuw %"class.open3d::pipelines::integration::UniformTSDFVolume", ptr %3, i32 0, i32 1
  call void @_ZNSt6vectorIN6open3d8geometry9TSDFVoxelESaIS2_EE5clearEv(ptr noundef nonnull align 8 dereferenceable(24) %4) #32
  ret void
}