; Function Attrs: mustprogress nofree norecurse nosync nounwind ssp willreturn memory(argmem: readwrite) uwtable
define void @_ZN6open3d9pipelines11integration17UniformTSDFVolume5ResetEv(ptr noundef nonnull align 8 captures(none) dereferenceable(96) %0) unnamed_addr #1 align 2 personality ptr @__gxx_personality_v0 {
  %2 = getelementptr inbounds nuw i8, ptr %0, i64 32
  %3 = load ptr, ptr %2, align 8, !tbaa !4
  %4 = getelementptr inbounds nuw i8, ptr %0, i64 40
  %5 = load ptr, ptr %4, align 8, !tbaa !10
  %.not.i.i = icmp eq ptr %5, %3
  br i1 %.not.i.i, label %_ZNSt6vectorIN6open3d8geometry9TSDFVoxelESaIS2_EE5clearEv.exit, label %_ZSt8_DestroyIPN6open3d8geometry9TSDFVoxelES2_EvT_S4_RSaIT0_E.exit.i.i

_ZSt8_DestroyIPN6open3d8geometry9TSDFVoxelES2_EvT_S4_RSaIT0_E.exit.i.i: ; preds = %1
  store ptr %3, ptr %4, align 8, !tbaa !10
  br label %_ZNSt6vectorIN6open3d8geometry9TSDFVoxelESaIS2_EE5clearEv.exit

_ZNSt6vectorIN6open3d8geometry9TSDFVoxelESaIS2_EE5clearEv.exit: ; preds = %1, %_ZSt8_DestroyIPN6open3d8geometry9TSDFVoxelES2_EvT_S4_RSaIT0_E.exit.i.i
  ret void
}